; Function Attrs: mustprogress nofree norecurse nosync nounwind willreturn memory(readwrite, inaccessiblemem: none) uwtable
define internal noundef i64 @_ZN12duckdb_minizL20mz_zip_mem_read_funcEPvmS0_m(ptr noundef readonly captures(none) %0, i64 noundef %1, ptr noundef writeonly captures(none) %2, i64 noundef %3) #10 {
  %5 = load i64, ptr %0, align 8, !tbaa !227
  %.not = icmp ult i64 %1, %5
  %6 = sub nuw i64 %5, %1
  %. = tail call i64 @llvm.umin.i64(i64 %6, i64 %3)
  %7 = select i1 %.not, i64 %., i64 0
  %8 = getelementptr inbounds nuw i8, ptr %0, i64 104
  %9 = load ptr, ptr %8, align 8, !tbaa !204
  %10 = getelementptr inbounds nuw i8, ptr %9, i64 128
  %11 = load ptr, ptr %10, align 8, !tbaa !241
  %12 = getelementptr inbounds nuw i8, ptr %11, i64 %1
  tail call void @llvm.memcpy.p0.p0.i64(ptr align 1 %2, ptr align 1 %12, i64 %7, i1 false)
  ret i64 %7
}